target datalayout = "e-m:e-p270:32:32-p271:32:32-p272:64:64-i64:64-i128:128-f80:128-n8:16:32:64-S128"
target triple = "x86_64-pc-linux-gnu"

%struct.GCRef = type { i64 }
%struct.jit_State = type { %struct.GCtrace, ptr, ptr, ptr, ptr, ptr, ptr, i32, i32, i32, i8, i8, %struct.IRType1, i8, %struct.FoldState, ptr, i32, i32, i32, i32, i32, i32, i32, [1 x i32], [5 x %union.TValue], [3 x %union.TValue], ptr, i32, i32, i32, i32, ptr, ptr, i32, i32, i8, ptr, i32, i32, i16, [101 x i16], [258 x i32], [15 x i32], [16 x ptr], [64 x %struct.HotPenalty], i32, [16 x %struct.BPropEntry], i32, %struct.ScEvEntry, ptr, i32, i32, i32, ptr, i32, i32, ptr, ptr, ptr, i64, i64, %union.TValue, ptr, i32, i32 }
%struct.GCtrace = type { %struct.GCRef, i8, i8, i16, i32, i32, %struct.GCRef, ptr, i32, i32, ptr, ptr, %struct.GCRef, %struct.MRef, i32, i32, ptr, i32, i16, i16, i16, i16, i16, i16, i16, i8, i8, i8, i8 }
%struct.MRef = type { i64 }
%struct.IRType1 = type { i8 }
%struct.FoldState = type { %union.IRIns, [2 x %union.IRIns], [2 x %union.IRIns] }
%union.IRIns = type { %struct.GCRef }
%struct.HotPenalty = type { %struct.MRef, i16, i16 }
%struct.BPropEntry = type { i16, i16, i32 }
%struct.ScEvEntry = type { %struct.MRef, i16, i16, i16, i16, %struct.IRType1, i8 }
%union.TValue = type { i64 }
%struct.RecordFFData = type { ptr, i64, i32 }

; Function Attrs: nounwind uwtable
define internal void @recff_math_pow(ptr noundef %0, ptr noundef %1) #0 {
  %3 = alloca ptr, align 8
  %4 = alloca ptr, align 8
  store ptr %0, ptr %3, align 8, !tbaa !4
  store ptr %1, ptr %4, align 8, !tbaa !46
  %5 = load ptr, ptr %3, align 8, !tbaa !4
  %6 = load ptr, ptr %3, align 8, !tbaa !4
  %7 = getelementptr inbounds nuw %struct.jit_State, ptr %6, i32 0, i32 6
  %8 = load ptr, ptr %7, align 8, !tbaa !41
  %9 = getelementptr inbounds i32, ptr %8, i64 0
  %10 = load i32, ptr %9, align 4, !tbaa !9
  %11 = load ptr, ptr %3, align 8, !tbaa !4
  %12 = getelementptr inbounds nuw %struct.jit_State, ptr %11, i32 0, i32 6
  %13 = load ptr, ptr %12, align 8, !tbaa !41
  %14 = getelementptr inbounds i32, ptr %13, i64 1
  %15 = load i32, ptr %14, align 4, !tbaa !9
  %16 = load ptr, ptr %4, align 8, !tbaa !46
  %17 = getelementptr inbounds nuw %struct.RecordFFData, ptr %16, i32 0, i32 0
  %18 = load ptr, ptr %17, align 8, !tbaa !40
  %19 = getelementptr inbounds %union.TValue, ptr %18, i64 0
  %20 = load ptr, ptr %4, align 8, !tbaa !46
  %21 = getelementptr inbounds nuw %struct.RecordFFData, ptr %20, i32 0, i32 0
  %22 = load ptr, ptr %21, align 8, !tbaa !40
  %23 = getelementptr inbounds %union.TValue, ptr %22, i64 1
  %24 = call i32 @lj_opt_narrow_arith(ptr noundef %5, i32 noundef %10, i32 noundef %15, ptr noundef %19, ptr noundef %23, i32 noundef 46)
  %25 = load ptr, ptr %3, align 8, !tbaa !4
  %26 = getelementptr inbounds nuw %struct.jit_State, ptr %25, i32 0, i32 6
  %27 = load ptr, ptr %26, align 8, !tbaa !41
  %28 = getelementptr inbounds i32, ptr %27, i64 0
  store i32 %24, ptr %28, align 4, !tbaa !9
  ret void
}