; Function Attrs: nounwind uwtable
define internal void @recff_math_pow(ptr noundef %0, ptr noundef readonly captures(none) %1) #0 {
  %3 = getelementptr inbounds nuw i8, ptr %0, i64 160
  %4 = load ptr, ptr %3, align 8, !tbaa !37
  %5 = load i32, ptr %4, align 4, !tbaa !39
  %6 = getelementptr inbounds nuw i8, ptr %4, i64 4
  %7 = load i32, ptr %6, align 4, !tbaa !39
  %8 = load ptr, ptr %1, align 8, !tbaa !36
  %9 = getelementptr inbounds nuw i8, ptr %8, i64 8
  %10 = tail call i32 @lj_opt_narrow_arith(ptr noundef %0, i32 noundef %5, i32 noundef %7, ptr noundef %8, ptr noundef nonnull %9, i32 noundef 46) #9
  %11 = load ptr, ptr %3, align 8, !tbaa !37
  store i32 %10, ptr %11, align 4, !tbaa !39
  ret void
}